; Function Attrs: mustprogress uwtable
define void @_ZN7rocksdb24PartitionedIndexIterator4PrevEv(ptr noundef nonnull align 8 dereferenceable(816) %this) unnamed_addr #2 align 2 {
entry:
  %block_iter_ = getelementptr inbounds i8, ptr %this, i64 224
  %vtable.i = load ptr, ptr %block_iter_, align 8
  %vfn.i = getelementptr inbounds i8, ptr %vtable.i, i64 248
  %0 = load ptr, ptr %vfn.i, align 8
  tail call void %0(ptr noundef nonnull align 8 dereferenceable(320) %block_iter_)
  tail call void @_ZN7rocksdb9BlockIterINS_10IndexValueEE9UpdateKeyEv(ptr noundef nonnull align 8 dereferenceable(320) %block_iter_)
  tail call void @_ZN7rocksdb24PartitionedIndexIterator15FindKeyBackwardEv(ptr noundef nonnull align 8 dereferenceable(816) %this)
  ret void
}